Certificate:
    Data:
        Version: 3 (0x2)
        Serial Number: 8 (0x8)
    Signature Algorithm: sha256WithRSAEncryption
        Issuer: C=BA, ST=RS, L=Banja Luka, O=ETF, OU=CA_DraganKos, CN=draganKos/emailAddress=dragankos_96@hotmail.com
        Validity
            Not Before: Jan 18 13:01:26 2019 GMT
            Not After : Apr 18 13:01:26 2019 GMT
        Subject: C=BA, ST=RS, O=ETF, OU=CA_DraganKos, CN=korisnik2/emailAddress=korisnik2@korinsik.com
        Subject Public Key Info:
            Public Key Algorithm: rsaEncryption
                Public-Key: (4096 bit)
                Modulus:
                    00:a9:64:94:91:6b:23:44:3b:f1:05:20:3f:60:13:
                    35:93:ec:c0:f3:41:5d:c0:8f:8e:da:5a:fd:12:26:
                    f7:c4:d6:8a:5a:c1:b3:e5:e1:57:5d:56:f0:57:f2:
                    30:b4:10:f1:1a:88:8c:bc:1f:73:cc:b2:0c:49:6e:
                    5a:08:0a:62:d7:d8:88:e5:da:7d:69:5d:10:09:8d:
                    f7:f7:62:64:ad:b4:a5:86:30:d5:7e:98:62:4d:e5:
                    45:fa:3d:20:9d:c6:52:a4:f7:d1:43:c2:6b:a4:a8:
                    d9:f0:aa:83:c2:3c:7d:71:69:c3:b9:72:83:13:fa:
                    23:7d:e2:ca:00:62:c5:60:c8:5f:7d:b7:33:a1:a4:
                    23:89:75:aa:1b:4a:09:ea:7d:7f:46:af:18:48:63:
                    db:ac:0b:13:18:7a:90:8b:d2:9b:5c:c3:14:89:63:
                    c8:ef:a8:6c:c1:4a:17:af:c8:91:57:09:e0:84:01:
                    9f:ad:e3:7f:a3:46:3d:83:84:b0:b4:f0:02:53:1e:
                    27:37:e7:fa:f4:c6:95:f0:c9:e2:c6:1e:b5:70:cf:
                    02:e2:e1:1e:21:87:6b:f7:72:f7:37:73:fd:05:c1:
                    04:d6:da:75:b7:6d:ac:40:71:d1:a6:af:a0:67:ab:
                    18:fa:26:d1:1d:12:c8:81:9f:57:39:09:d4:d3:4f:
                    6c:be:1e:90:34:92:24:ae:74:e3:cd:aa:f3:5b:2b:
                    6a:6c:65:51:d3:6c:bc:88:40:ae:ad:14:c4:fe:d2:
                    b9:05:19:b9:d8:9f:87:30:41:04:95:29:8d:57:0a:
                    d4:af:8f:23:9a:01:21:f8:5f:69:3a:a6:c0:a8:42:
                    82:3f:69:d9:f2:a5:2d:95:e7:45:9e:1b:65:2f:88:
                    69:2f:f3:26:d3:04:46:29:14:05:cf:e0:1e:b3:76:
                    05:1b:95:82:fb:f8:ae:55:fa:9d:07:ff:54:11:5d:
                    d3:97:39:c0:da:ca:08:19:2e:b4:57:08:de:1b:e4:
                    1a:27:cb:9b:a9:af:1b:2b:26:d4:f9:f8:56:e2:e5:
                    1c:df:fa:92:c4:35:cf:5a:22:9e:d2:e4:ad:95:7e:
                    cb:f4:f3:5a:92:9c:19:e6:7e:5f:be:42:89:c8:6a:
                    63:7a:f6:6a:90:e6:76:e2:bc:99:7d:d1:7f:f8:48:
                    5b:1f:ae:4f:3f:77:f4:3a:d3:79:1d:c8:67:4c:dc:
                    21:5e:2d:c0:80:7a:7d:e1:d8:09:04:09:2f:21:77:
                    27:0e:18:62:b5:ad:53:ff:35:76:b7:37:af:5f:37:
                    c9:4f:2d:ba:fe:d0:7c:16:e6:03:88:cc:28:f8:a0:
                    c2:0a:76:5a:45:2f:73:17:96:97:55:d5:ff:58:8d:
                    fa:7f:db
                Exponent: 65537 (0x10001)
        X509v3 extensions:
            X509v3 Basic Constraints: 
                CA:FALSE
            X509v3 Key Usage: 
                Digital Signature, Key Encipherment, Data Encipherment
            X509v3 Extended Key Usage: 
                TLS Web Client Authentication
            Netscape Comment: 
                OpenSSL Generated Certificate
            X509v3 Subject Key Identifier: 
                9D:4D:F3:16:0A:F8:D4:1A:87:4B:9C:BB:78:0A:D3:1C:06:48:03:FF
            X509v3 Authority Key Identifier: 
                keyid:91:D0:A7:A7:09:8A:0D:EF:65:1B:90:11:1F:FA:FC:C6:05:30:4B:B5

            X509v3 CRL Distribution Points: 

                Full Name:
                  URI:http://192.168.21.89/rootcrl.pem

    Signature Algorithm: sha256WithRSAEncryption
         a5:ae:d6:37:a7:34:29:d2:d9:df:70:6e:c2:ca:dc:2a:69:73:
         83:ec:99:a9:6d:59:87:eb:b0:dd:c3:e0:ce:31:54:c4:08:0e:
         bc:25:65:6d:2e:38:6a:b5:d1:40:d3:f5:19:96:4d:13:8b:71:
         f9:f3:04:3a:e5:bf:f9:e0:bc:ca:82:15:06:c8:ed:de:e6:49:
         98:78:5d:8d:c4:67:fa:16:0f:91:0e:a2:69:c2:9c:19:92:b6:
         12:dd:ef:d2:db:80:42:90:eb:e3:1e:8e:83:9d:0d:db:3e:05:
         23:0a:88:3c:f4:82:2f:df:5e:45:3d:9a:e6:36:54:bd:b5:be:
         27:3b:ee:fb:e3:86:28:15:9e:53:c1:ea:b1:ac:de:66:a2:7b:
         2e:fc:c1:d2:61:27:7c:a8:01:03:fb:83:9d:57:04:a9:49:c2:
         7c:24:2b:cd:bf:2d:3a:60:af:4f:71:66:6f:50:b4:31:c1:38:
         6d:71:72:c0:a2:ec:9d:84:44:cb:a6:9a:8e:39:71:fd:60:ca:
         1e:d4:6d:42:a5:77:00:3f:6f:0e:01:33:6d:bd:16:2f:5b:79:
         e0:b8:a4:d9:cb:19:6b:bc:ae:d3:1f:8b:9a:bb:a1:45:62:9b:
         04:fd:94:98:fe:15:b8:51:27:73:52:c9:40:91:d4:81:d4:33:
         a8:d5:07:02:95:43:fc:b3:d8:80:38:06:37:af:e0:41:31:df:
         a3:fb:fd:26:ff:13:ed:bd:c6:58:e8:69:9b:b7:c9:6b:fc:1b:
         e1:c2:0a:8d:4f:0d:d6:28:3c:61:91:89:fb:d5:82:05:12:d2:
         b6:04:64:31:4a:64:f2:fe:6d:27:d7:1d:5a:b7:28:51:97:b8:
         3b:89:01:91:22:cf:fe:fa:2e:d7:a7:20:30:d3:fb:f5:68:aa:
         b4:03:1c:9b:29:6c:f5:89:38:99:7f:bc:b4:67:35:bf:f4:6a:
         96:d5:2a:b6:b7:e8:f8:5b:b1:5b:58:4b:e3:75:a4:57:e5:76:
         4a:45:3a:49:01:d8:0b:05:f0:3d:43:64:e5:af:fd:e6:da:4f:
         77:82:70:97:ec:b3:dd:68:9e:95:ef:09:f9:30:72:61:73:ef:
         29:1a:32:3f:41:ac:47:13:62:32:99:9b:01:bd:bc:02:8c:08:
         a8:82:0c:8e:ff:5d:d8:f2:00:40:70:35:fb:6f:d8:9f:1b:71:
         ee:25:b9:31:c2:04:95:6d:4b:43:32:b7:95:1c:d0:8e:87:07:
         4c:42:2b:40:0a:5f:51:fc:5a:33:bb:dc:72:86:e0:a3:f2:ce:
         8c:7d:b2:c7:a9:ca:59:8d:a6:79:e1:99:94:99:fe:7b:04:f3:
         b9:2b:c0:ea:c9:c0:75:ab
-----BEGIN CERTIFICATE-----
MIIGWTCCBEGgAwIBAgIBCDANBgkqhkiG9w0BAQsFADCBkTELMAkGA1UEBhMCQkEx
CzAJBgNVBAgTAlJTMRMwEQYDVQQHEwpCYW5qYSBMdWthMQwwCgYDVQQKEwNFVEYx
FTATBgNVBAsUDENBX0RyYWdhbktvczESMBAGA1UEAxMJZHJhZ2FuS29zMScwJQYJ
KoZIhvcNAQkBFhhkcmFnYW5rb3NfOTZAaG90bWFpbC5jb20wHhcNMTkwMTE4MTMw
MTI2WhcNMTkwNDE4MTMwMTI2WjB6MQswCQYDVQQGEwJCQTELMAkGA1UECBMCUlMx
DDAKBgNVBAoTA0VURjEVMBMGA1UECxQMQ0FfRHJhZ2FuS29zMRIwEAYDVQQDEwlr
b3Jpc25pazIxJTAjBgkqhkiG9w0BCQEWFmtvcmlzbmlrMkBrb3JpbnNpay5jb20w
ggIiMA0GCSqGSIb3DQEBAQUAA4ICDwAwggIKAoICAQCpZJSRayNEO/EFID9gEzWT
7MDzQV3Aj47aWv0SJvfE1opawbPl4VddVvBX8jC0EPEaiIy8H3PMsgxJbloICmLX
2Ijl2n1pXRAJjff3YmSttKWGMNV+mGJN5UX6PSCdxlKk99FDwmukqNnwqoPCPH1x
acO5coMT+iN94soAYsVgyF99tzOhpCOJdaobSgnqfX9GrxhIY9usCxMYepCL0ptc
wxSJY8jvqGzBShevyJFXCeCEAZ+t43+jRj2DhLC08AJTHic35/r0xpXwyeLGHrVw
zwLi4R4hh2v3cvc3c/0FwQTW2nW3baxAcdGmr6Bnqxj6JtEdEsiBn1c5CdTTT2y+
HpA0kiSudOPNqvNbK2psZVHTbLyIQK6tFMT+0rkFGbnYn4cwQQSVKY1XCtSvjyOa
ASH4X2k6psCoQoI/adnypS2V50WeG2UviGkv8ybTBEYpFAXP4B6zdgUblYL7+K5V
+p0H/1QRXdOXOcDayggZLrRXCN4b5Bony5uprxsrJtT5+Fbi5Rzf+pLENc9aIp7S
5K2Vfsv081qSnBnmfl++QonIamN69mqQ5nbivJl90X/4SFsfrk8/d/Q603kdyGdM
3CFeLcCAen3h2AkECS8hdycOGGK1rVP/NXa3N69fN8lPLbr+0HwW5gOIzCj4oMIK
dlpFL3MXlpdV1f9Yjfp/2wIDAQABo4HRMIHOMAkGA1UdEwQCMAAwCwYDVR0PBAQD
AgSwMBMGA1UdJQQMMAoGCCsGAQUFBwMCMCwGCWCGSAGG+EIBDQQfFh1PcGVuU1NM
IEdlbmVyYXRlZCBDZXJ0aWZpY2F0ZTAdBgNVHQ4EFgQUnU3zFgr41BqHS5y7eArT
HAZIA/8wHwYDVR0jBBgwFoAUkdCnpwmKDe9lG5ARH/r8xgUwS7UwMQYDVR0fBCow
KDAmoCSgIoYgaHR0cDovLzE5Mi4xNjguMjEuODkvcm9vdGNybC5wZW0wDQYJKoZI
hvcNAQELBQADggIBAKWu1jenNCnS2d9wbsLK3Cppc4PsmaltWYfrsN3D4M4xVMQI
DrwlZW0uOGq10UDT9RmWTROLcfnzBDrlv/ngvMqCFQbI7d7mSZh4XY3EZ/oWD5EO
omnCnBmSthLd79LbgEKQ6+MejoOdDds+BSMKiDz0gi/fXkU9muY2VL21vic77vvj
higVnlPB6rGs3maiey78wdJhJ3yoAQP7g51XBKlJwnwkK82/LTpgr09xZm9QtDHB
OG1xcsCi7J2ERMummo45cf1gyh7UbUKldwA/bw4BM229Fi9beeC4pNnLGWu8rtMf
i5q7oUVimwT9lJj+FbhRJ3NSyUCR1IHUM6jVBwKVQ/yz2IA4Bjev4EEx36P7/Sb/
E+29xljoaZu3yWv8G+HCCo1PDdYoPGGRifvVggUS0rYEZDFKZPL+bSfXHVq3KFGX
uDuJAZEiz/76LtenIDDT+/VoqrQDHJspbPWJOJl/vLRnNb/0apbVKra36PhbsVtY
S+N1pFfldkpFOkkB2AsF8D1DZOWv/ebaT3eCcJfss91onpXvCfkwcmFz7ykaMj9B
rEcTYjKZmwG9vAKMCKiCDI7/XdjyAEBwNftv2J8bce4luTHCBJVtS0Myt5Uc0I6H
B0xCK0AKX1H8WjO73HKG4KPyzox9ssepylmNpnnhmZSZ/nsE87krwOrJwHWr
-----END CERTIFICATE-----
