Certificate:
    Data:
        Version: 3 (0x2)
        Serial Number: 7 (0x7)
    Signature Algorithm: sha256WithRSAEncryption
        Issuer: C=BA, ST=RS, L=Banja Luka, O=ETF, OU=CA_DraganKos, CN=draganKos/emailAddress=dragankos_96@hotmail.com
        Validity
            Not Before: Jan 18 13:22:00 2019 GMT
            Not After : Apr 18 13:22:00 2019 GMT
        Subject: C=BA, ST=RS, O=ETF, OU=CA_DraganKos, CN=korisnik1/emailAddress=korisnik1@korisnik.com
        Subject Public Key Info:
            Public Key Algorithm: rsaEncryption
                Public-Key: (4096 bit)
                Modulus:
                    00:bf:f5:96:bf:c3:c2:30:f3:ae:00:72:34:0f:45:
                    6f:75:83:56:30:39:e3:39:13:ef:db:70:40:5e:e4:
                    80:4c:54:86:dd:f5:f7:a0:53:89:f4:fa:6e:a9:3c:
                    e9:16:7a:f8:8e:21:f6:59:ea:27:07:46:a2:5a:11:
                    a2:4d:31:49:eb:83:25:60:bb:5e:5b:b1:9c:85:02:
                    57:82:5e:cc:c4:22:c8:e6:c1:3d:28:c2:37:39:ef:
                    38:f1:69:10:dc:49:e5:19:ef:61:ca:a4:22:7d:95:
                    ec:b3:18:d0:a9:87:3f:a9:bc:b1:c1:d2:73:c6:4c:
                    91:df:51:1c:74:42:6b:2c:0b:e4:f7:5a:fa:f9:2f:
                    5c:61:20:b1:e1:1f:18:fb:ee:21:c9:37:63:51:0b:
                    bb:c7:d4:e3:5a:d6:e7:72:e2:59:2e:9c:f5:7b:f7:
                    49:fa:b1:3a:7d:87:da:1b:79:4b:c9:41:47:0e:8f:
                    ec:6c:96:ca:23:98:7e:cd:c9:33:4c:f4:04:7b:33:
                    ca:3b:ed:55:f5:c0:19:7b:36:e5:47:2b:49:fd:5f:
                    eb:17:53:da:1e:6e:58:26:7a:66:ab:b2:ce:71:1c:
                    de:35:a1:33:94:2a:cd:21:30:23:09:11:d6:ba:99:
                    97:b1:20:f6:28:15:e0:da:cd:6e:fe:ac:29:a9:af:
                    2f:1f:d0:7b:10:6c:bd:39:09:8e:87:e2:df:29:24:
                    ee:92:70:1f:ff:7f:a1:28:ac:ac:6b:4d:77:48:50:
                    94:ce:d0:0d:05:98:dd:8d:ba:88:ae:2b:10:1c:91:
                    bd:8b:bb:a5:30:89:13:51:8f:ae:68:50:76:88:69:
                    9b:82:fb:5f:6e:34:f8:e6:59:1a:a4:df:fe:8f:63:
                    5c:b3:db:91:68:fe:06:f4:2a:fb:1e:0c:7e:f2:1d:
                    9a:d3:a8:0a:c2:4f:b0:d6:67:15:3e:6f:f5:98:07:
                    f7:0a:d0:ef:da:db:86:ea:e3:e5:f1:5b:a4:10:8b:
                    65:01:3f:23:0c:2c:3e:cc:55:85:95:8b:d4:f8:ca:
                    71:55:3a:7e:8a:84:6e:f8:cd:63:c5:5c:7c:42:bd:
                    10:7f:ef:27:24:68:d9:42:2a:13:86:f3:a1:29:5a:
                    f5:83:4e:c4:be:1a:8b:39:13:af:25:5e:37:64:83:
                    d0:4a:34:de:94:f1:f3:a6:06:4d:4c:fc:b2:25:3d:
                    11:43:d4:c3:d4:81:10:0c:47:30:ac:2a:d3:e4:dd:
                    9c:94:db:a3:b6:7c:05:00:60:3b:14:f9:2c:eb:80:
                    a0:23:97:85:34:ef:94:6b:8f:b8:6b:d0:2c:bb:53:
                    74:d0:e4:2e:81:46:0d:5d:f1:40:6c:33:d3:94:7f:
                    7f:c0:3f
                Exponent: 65537 (0x10001)
        X509v3 extensions:
            X509v3 Basic Constraints: 
                CA:FALSE
            X509v3 Key Usage: 
                Digital Signature, Key Encipherment, Data Encipherment
            X509v3 Extended Key Usage: 
                TLS Web Client Authentication
            Netscape Comment: 
                OpenSSL Generated Certificate
            X509v3 Subject Key Identifier: 
                B2:D9:6C:DD:4C:8C:5B:8F:4A:32:56:BD:F4:DC:42:D9:97:CA:81:73
            X509v3 Authority Key Identifier: 
                keyid:91:D0:A7:A7:09:8A:0D:EF:65:1B:90:11:1F:FA:FC:C6:05:30:4B:B5

            X509v3 CRL Distribution Points: 

                Full Name:
                  URI:http://192.168.21.89/rootcrl.pem

    Signature Algorithm: sha256WithRSAEncryption
         b9:7e:d9:39:61:8e:29:07:67:4b:a7:c6:a7:50:d9:bc:de:61:
         48:c1:64:bb:56:a4:73:ad:aa:ff:d3:ac:ea:f2:3f:71:56:c1:
         b2:96:97:4e:96:13:cf:64:21:40:c9:d7:53:97:9c:18:9d:2f:
         26:aa:ab:5a:2e:ea:08:ad:5f:87:bd:4b:e8:4f:f9:e2:d9:2b:
         63:b4:23:5c:bb:69:66:d6:15:dc:8f:78:a7:e1:bb:ac:8d:cd:
         52:b9:21:9b:04:1b:f3:92:ef:ba:72:63:64:fa:62:a6:07:04:
         df:d3:84:c5:56:6a:c7:51:43:67:0b:a6:3a:8a:76:a9:63:9c:
         97:81:de:ff:b6:fd:fb:b8:5b:dd:07:0a:7d:ba:37:93:c5:01:
         09:f0:b5:15:78:69:82:19:44:e0:69:30:08:5d:af:0c:0a:45:
         16:be:a0:48:6a:c0:29:5d:50:00:a9:36:ff:0c:0f:5d:d0:69:
         f5:d9:1e:87:52:25:ef:a8:a9:04:0c:fa:d8:9e:c6:f2:bb:f3:
         8c:c3:77:84:76:bc:95:ac:1c:4b:48:e1:f3:b0:39:a3:8b:23:
         a7:d4:db:26:9a:df:e4:1f:11:48:a5:c9:4a:81:29:b2:aa:98:
         fd:c4:52:1d:e5:fe:9a:f1:f7:24:6a:af:0a:9b:0c:f1:ed:a2:
         5b:17:00:8b:d7:9f:e3:aa:8c:27:37:5e:29:c7:f6:38:b6:cd:
         72:f5:be:4c:bb:32:69:ed:66:fc:fb:19:d0:fe:01:40:3d:dd:
         0e:0f:de:ea:4b:a2:36:06:27:85:86:91:db:04:1c:62:e4:61:
         27:69:69:f1:95:53:0b:89:ca:89:cf:ef:91:51:04:2a:21:04:
         39:35:ce:4c:4a:f9:94:59:9e:61:22:68:72:a4:3b:71:49:ea:
         49:f9:92:0a:6f:54:bf:f5:89:3c:35:7a:49:17:e3:53:17:a2:
         a6:17:78:08:39:a5:d0:62:12:9a:2a:a0:af:69:3e:52:ad:56:
         d0:b6:78:9f:89:7a:65:ac:e9:fa:27:28:43:cc:73:ad:cc:1f:
         5c:c0:07:ad:1d:68:91:6d:de:3b:7e:49:4a:07:ae:94:a3:fd:
         4f:9c:54:c6:3f:3f:80:43:b7:6d:4d:dd:69:6a:cc:81:74:6f:
         1a:33:f3:a6:a6:1a:61:a6:c2:36:d7:51:24:0d:e4:ec:03:94:
         17:40:74:2a:f3:2a:7b:e8:15:91:16:96:48:70:de:f2:11:34:
         c8:9d:ac:11:70:53:00:b7:86:83:7a:8a:71:90:8f:f9:e2:ab:
         b0:a6:72:1e:17:fc:67:91:06:45:70:4d:08:46:26:6f:e0:a9:
         d1:59:b6:25:c1:32:87:7a
-----BEGIN CERTIFICATE-----
MIIGWTCCBEGgAwIBAgIBBzANBgkqhkiG9w0BAQsFADCBkTELMAkGA1UEBhMCQkEx
CzAJBgNVBAgTAlJTMRMwEQYDVQQHEwpCYW5qYSBMdWthMQwwCgYDVQQKEwNFVEYx
FTATBgNVBAsUDENBX0RyYWdhbktvczESMBAGA1UEAxMJZHJhZ2FuS29zMScwJQYJ
KoZIhvcNAQkBFhhkcmFnYW5rb3NfOTZAaG90bWFpbC5jb20wHhcNMTkwMTE4MTMy
MjAwWhcNMTkwNDE4MTMyMjAwWjB6MQswCQYDVQQGEwJCQTELMAkGA1UECBMCUlMx
DDAKBgNVBAoTA0VURjEVMBMGA1UECxQMQ0FfRHJhZ2FuS29zMRIwEAYDVQQDEwlr
b3Jpc25pazExJTAjBgkqhkiG9w0BCQEWFmtvcmlzbmlrMUBrb3Jpc25pay5jb20w
ggIiMA0GCSqGSIb3DQEBAQUAA4ICDwAwggIKAoICAQC/9Za/w8Iw864AcjQPRW91
g1YwOeM5E+/bcEBe5IBMVIbd9fegU4n0+m6pPOkWeviOIfZZ6icHRqJaEaJNMUnr
gyVgu15bsZyFAleCXszEIsjmwT0owjc57zjxaRDcSeUZ72HKpCJ9leyzGNCphz+p
vLHB0nPGTJHfURx0QmssC+T3Wvr5L1xhILHhHxj77iHJN2NRC7vH1ONa1udy4lku
nPV790n6sTp9h9obeUvJQUcOj+xslsojmH7NyTNM9AR7M8o77VX1wBl7NuVHK0n9
X+sXU9oeblgmemarss5xHN41oTOUKs0hMCMJEda6mZexIPYoFeDazW7+rCmpry8f
0HsQbL05CY6H4t8pJO6ScB//f6EorKxrTXdIUJTO0A0FmN2NuoiuKxAckb2Lu6Uw
iRNRj65oUHaIaZuC+19uNPjmWRqk3/6PY1yz25Fo/gb0KvseDH7yHZrTqArCT7DW
ZxU+b/WYB/cK0O/a24bq4+XxW6QQi2UBPyMMLD7MVYWVi9T4ynFVOn6KhG74zWPF
XHxCvRB/7yckaNlCKhOG86EpWvWDTsS+Gos5E68lXjdkg9BKNN6U8fOmBk1M/LIl
PRFD1MPUgRAMRzCsKtPk3ZyU26O2fAUAYDsU+SzrgKAjl4U075Rrj7hr0Cy7U3TQ
5C6BRg1d8UBsM9OUf3/APwIDAQABo4HRMIHOMAkGA1UdEwQCMAAwCwYDVR0PBAQD
AgSwMBMGA1UdJQQMMAoGCCsGAQUFBwMCMCwGCWCGSAGG+EIBDQQfFh1PcGVuU1NM
IEdlbmVyYXRlZCBDZXJ0aWZpY2F0ZTAdBgNVHQ4EFgQUstls3UyMW49KMla99NxC
2ZfKgXMwHwYDVR0jBBgwFoAUkdCnpwmKDe9lG5ARH/r8xgUwS7UwMQYDVR0fBCow
KDAmoCSgIoYgaHR0cDovLzE5Mi4xNjguMjEuODkvcm9vdGNybC5wZW0wDQYJKoZI
hvcNAQELBQADggIBALl+2TlhjikHZ0unxqdQ2bzeYUjBZLtWpHOtqv/TrOryP3FW
wbKWl06WE89kIUDJ11OXnBidLyaqq1ou6gitX4e9S+hP+eLZK2O0I1y7aWbWFdyP
eKfhu6yNzVK5IZsEG/OS77pyY2T6YqYHBN/ThMVWasdRQ2cLpjqKdqljnJeB3v+2
/fu4W90HCn26N5PFAQnwtRV4aYIZROBpMAhdrwwKRRa+oEhqwCldUACpNv8MD13Q
afXZHodSJe+oqQQM+tiexvK784zDd4R2vJWsHEtI4fOwOaOLI6fU2yaa3+QfEUil
yUqBKbKqmP3EUh3l/prx9yRqrwqbDPHtolsXAIvXn+OqjCc3XinH9ji2zXL1vky7
MmntZvz7GdD+AUA93Q4P3upLojYGJ4WGkdsEHGLkYSdpafGVUwuJyonP75FRBCoh
BDk1zkxK+ZRZnmEiaHKkO3FJ6kn5kgpvVL/1iTw1ekkX41MXoqYXeAg5pdBiEpoq
oK9pPlKtVtC2eJ+JemWs6fonKEPMc63MH1zAB60daJFt3jt+SUoHrpSj/U+cVMY/
P4BDt21N3WlqzIF0bxoz86amGmGmwjbXUSQN5OwDlBdAdCrzKnvoFZEWlkhw3vIR
NMidrBFwUwC3hoN6inGQj/niq7Cmch4X/GeRBkVwTQhGJm/gqdFZtiXBMod6
-----END CERTIFICATE-----
